; Function Attrs: mustprogress uwtable
define noundef nonnull align 8 dereferenceable(8) ptr @_ZN8facebook3jsi7PointeraSEOS1_(ptr noundef nonnull returned align 8 dereferenceable(8) %this, ptr nocapture noundef nonnull align 8 dereferenceable(8) %other) local_unnamed_addr #11 align 2 {
entry:
  %0 = load ptr, ptr %this, align 8
  %tobool.not = icmp eq ptr %0, null
  br i1 %tobool.not, label %if.end, label %if.then

if.then:                                          ; preds = %entry
  %vtable = load ptr, ptr %0, align 8
  %1 = load ptr, ptr %vtable, align 8
  tail call void %1(ptr noundef nonnull align 8 dereferenceable(8) %0)
  br label %if.end

if.end:                                           ; preds = %if.then, %entry
  %2 = load ptr, ptr %other, align 8
  store ptr %2, ptr %this, align 8
  store ptr null, ptr %other, align 8
  ret ptr %this
}